target datalayout = "e-m:e-p270:32:32-p271:32:32-p272:64:64-i64:64-i128:128-f80:128-n8:16:32:64-S128"
target triple = "x86_64-pc-linux-gnu"

%struct._zval_struct = type { %union._zend_value, %union.anon.9, %union.anon.12 }
%union._zend_value = type { i64 }
%union.anon.9 = type { i32 }
%union.anon.12 = type { i32 }
%struct._zend_refcounted_h = type { i32, %union.anon.0 }
%union.anon.0 = type { i32 }
%struct.php_libxml_cache_tag = type { i64 }
%struct._dom_object = type { ptr, ptr, ptr, %struct._zend_object }
%struct._zend_object = type { %struct._zend_refcounted_h, i32, ptr, ptr, ptr, [1 x %struct._zval_struct] }
%struct._dom_nnodemap_object = type { ptr, %struct._zval_struct, i32, i32, ptr, ptr, ptr, %struct.php_libxml_cache_tag, ptr, i32, i8 }

; Function Attrs: nounwind uwtable
define hidden ptr @dom_nnodemap_objects_new(ptr noundef %0) #0 {
  %2 = alloca ptr, align 8
  %3 = alloca ptr, align 8
  %4 = alloca ptr, align 8
  store ptr %0, ptr %2, align 8
  %5 = load ptr, ptr %2, align 8
  %6 = call ptr @dom_objects_set_class(ptr noundef %5)
  store ptr %6, ptr %3, align 8
  %7 = call noalias ptr @_emalloc_80()
  %8 = load ptr, ptr %3, align 8
  %9 = getelementptr inbounds %struct._dom_object, ptr %8, i32 0, i32 0
  store ptr %7, ptr %9, align 8
  %10 = load ptr, ptr %3, align 8
  %11 = getelementptr inbounds %struct._dom_object, ptr %10, i32 0, i32 0
  %12 = load ptr, ptr %11, align 8
  store ptr %12, ptr %4, align 8
  br label %13

13:                                               ; preds = %1
  %14 = load ptr, ptr %4, align 8
  %15 = getelementptr inbounds %struct._dom_nnodemap_object, ptr %14, i32 0, i32 1
  %16 = getelementptr inbounds %struct._zval_struct, ptr %15, i32 0, i32 1
  store i32 0, ptr %16, align 8
  br label %17

17:                                               ; preds = %13
  %18 = load ptr, ptr %4, align 8
  %19 = getelementptr inbounds %struct._dom_nnodemap_object, ptr %18, i32 0, i32 0
  store ptr null, ptr %19, align 8
  %20 = load ptr, ptr %4, align 8
  %21 = getelementptr inbounds %struct._dom_nnodemap_object, ptr %20, i32 0, i32 2
  store i32 0, ptr %21, align 8
  %22 = load ptr, ptr %4, align 8
  %23 = getelementptr inbounds %struct._dom_nnodemap_object, ptr %22, i32 0, i32 4
  store ptr null, ptr %23, align 8
  %24 = load ptr, ptr %4, align 8
  %25 = getelementptr inbounds %struct._dom_nnodemap_object, ptr %24, i32 0, i32 5
  store ptr null, ptr %25, align 8
  %26 = load ptr, ptr %4, align 8
  %27 = getelementptr inbounds %struct._dom_nnodemap_object, ptr %26, i32 0, i32 10
  %28 = load i8, ptr %27, align 4
  %29 = and i8 %28, -2
  %30 = or i8 %29, 0
  store i8 %30, ptr %27, align 4
  %31 = load ptr, ptr %4, align 8
  %32 = getelementptr inbounds %struct._dom_nnodemap_object, ptr %31, i32 0, i32 6
  store ptr null, ptr %32, align 8
  %33 = load ptr, ptr %4, align 8
  %34 = getelementptr inbounds %struct._dom_nnodemap_object, ptr %33, i32 0, i32 10
  %35 = load i8, ptr %34, align 4
  %36 = and i8 %35, -3
  %37 = or i8 %36, 0
  store i8 %37, ptr %34, align 4
  %38 = load ptr, ptr %4, align 8
  %39 = getelementptr inbounds %struct._dom_nnodemap_object, ptr %38, i32 0, i32 7
  %40 = getelementptr inbounds %struct.php_libxml_cache_tag, ptr %39, i32 0, i32 0
  store i64 0, ptr %40, align 8
  %41 = load ptr, ptr %4, align 8
  %42 = getelementptr inbounds %struct._dom_nnodemap_object, ptr %41, i32 0, i32 3
  store i32 -1, ptr %42, align 4
  %43 = load ptr, ptr %4, align 8
  %44 = getelementptr inbounds %struct._dom_nnodemap_object, ptr %43, i32 0, i32 8
  store ptr null, ptr %44, align 8
  %45 = load ptr, ptr %4, align 8
  %46 = getelementptr inbounds %struct._dom_nnodemap_object, ptr %45, i32 0, i32 9
  store i32 0, ptr %46, align 8
  %47 = load ptr, ptr %3, align 8
  %48 = getelementptr inbounds %struct._dom_object, ptr %47, i32 0, i32 3
  ret ptr %48
}