; Function Attrs: nounwind uwtable
define hidden nonnull ptr @dom_nnodemap_objects_new(ptr noundef %0) #1 {
  %2 = tail call fastcc ptr @dom_objects_set_class(ptr noundef %0)
  %3 = tail call noalias ptr @_emalloc_80() #16
  store ptr %3, ptr %2, align 8
  %4 = getelementptr inbounds i8, ptr %3, i64 16
  store i32 0, ptr %4, align 8
  store ptr null, ptr %3, align 8
  %5 = getelementptr inbounds i8, ptr %3, i64 24
  store i32 0, ptr %5, align 8
  %6 = getelementptr inbounds i8, ptr %3, i64 32
  %7 = getelementptr inbounds i8, ptr %3, i64 76
  tail call void @llvm.memset.p0.i64(ptr noundef nonnull align 8 dereferenceable(16) %6, i8 0, i64 16, i1 false)
  %8 = load i8, ptr %7, align 4
  %9 = getelementptr inbounds i8, ptr %3, i64 48
  store ptr null, ptr %9, align 8
  %10 = and i8 %8, -4
  store i8 %10, ptr %7, align 4
  %11 = getelementptr inbounds i8, ptr %3, i64 56
  store i64 0, ptr %11, align 8
  %12 = getelementptr inbounds i8, ptr %3, i64 28
  store i32 -1, ptr %12, align 4
  %13 = getelementptr inbounds i8, ptr %3, i64 64
  store ptr null, ptr %13, align 8
  %14 = getelementptr inbounds i8, ptr %3, i64 72
  store i32 0, ptr %14, align 8
  %15 = getelementptr inbounds i8, ptr %2, i64 24
  ret ptr %15
}